target datalayout = "e-m:e-p270:32:32-p271:32:32-p272:64:64-i64:64-i128:128-f80:128-n8:16:32:64-S128"
target triple = "x86_64-pc-linux-gnu"

%struct.AVRational = type { i32, i32 }
%struct.AVCodecContext = type { ptr, i32, i32, ptr, i32, i32, ptr, ptr, ptr, i64, i32, i32, ptr, i32, %struct.AVRational, %struct.AVRational, %struct.AVRational, i32, i32, i32, i32, i32, %struct.AVRational, i32, i32, i32, i32, i32, i32, i32, i32, i32, i32, i32, ptr, ptr, i32, float, float, float, float, float, float, float, float, float, i32, i32, i32, i32, i32, i32, i32, i32, i32, i32, i32, i32, ptr, ptr, ptr, i32, i32, i32, i32, i32, i32, i32, i32, i32, i32, %struct.AVChannelLayout, i32, i32, i32, i32, i32, i32, i32, i32, ptr, i32, i32, i32, float, float, i32, i32, i32, i32, i32, ptr, i64, i64, float, float, i32, i32, ptr, ptr, i32, i32, i32, i32, i32, ptr, ptr, ptr, ptr, i32, i32, [8 x i64], i32, i32, i32, i32, i32, i32, i32, ptr, ptr, i32, i32, i32, i32, i32, i32, i32, i32, i32, i32, ptr, ptr, i32, i32, ptr, ptr, ptr, ptr, i32, i32, i64, i32, i32, i64, ptr, i64, ptr, i32, ptr, i32 }
%struct.AVChannelLayout = type { i32, i32, %union.anon, ptr }
%union.anon = type { i64 }
%struct.FFHWBaseEncodeContext = type { ptr, ptr, ptr, i32, i32, i32, i32, i32, i32, ptr, ptr, ptr, ptr, ptr, ptr, ptr, ptr, [2 x ptr], i32, i64, i64, i64, i64, i64, i64, i64, [112 x i64], i32, i32, i32, i32, i32, i32, i32, i32, i32, i32, i32, i32, i32, i32, i32, i32, ptr, i32, ptr, i32, ptr }

@.str.7 = private unnamed_addr constant [26 x i8] c"Using intra frames only.\0A\00", align 1
@.str.8 = private unnamed_addr constant [47 x i8] c"Driver does not support any reference frames.\0A\00", align 1
@.str.9 = private unnamed_addr constant [59 x i8] c"Using intra and B-frames (supported references: %d / %d).\0A\00", align 1
@.str.10 = private unnamed_addr constant [59 x i8] c"Using intra and P-frames (supported references: %d / %d).\0A\00", align 1
@.str.11 = private unnamed_addr constant [63 x i8] c"Using intra, P- and B-frames (supported references: %d / %d).\0A\00", align 1
@ff_log2_tab = external constant [256 x i8], align 16

; Function Attrs: alwaysinline nounwind willreturn memory(none) uwtable
define internal i32 @ff_log2_c(i32 noundef %0) #6 {
  %2 = alloca i32, align 4
  %3 = alloca i32, align 4
  store i32 %0, ptr %2, align 4, !tbaa !15
  call void @llvm.lifetime.start.p0(i64 4, ptr %3) #7
  store i32 0, ptr %3, align 4, !tbaa !15
  %4 = load i32, ptr %2, align 4, !tbaa !15
  %5 = and i32 %4, -65536
  %6 = icmp ne i32 %5, 0
  br i1 %6, label %7, label %12

7:                                                ; preds = %1
  %8 = load i32, ptr %2, align 4, !tbaa !15
  %9 = lshr i32 %8, 16
  store i32 %9, ptr %2, align 4, !tbaa !15
  %10 = load i32, ptr %3, align 4, !tbaa !15
  %11 = add nsw i32 %10, 16
  store i32 %11, ptr %3, align 4, !tbaa !15
  br label %12

12:                                               ; preds = %7, %1
  %13 = load i32, ptr %2, align 4, !tbaa !15
  %14 = and i32 %13, 65280
  %15 = icmp ne i32 %14, 0
  br i1 %15, label %16, label %21

16:                                               ; preds = %12
  %17 = load i32, ptr %2, align 4, !tbaa !15
  %18 = lshr i32 %17, 8
  store i32 %18, ptr %2, align 4, !tbaa !15
  %19 = load i32, ptr %3, align 4, !tbaa !15
  %20 = add nsw i32 %19, 8
  store i32 %20, ptr %3, align 4, !tbaa !15
  br label %21

21:                                               ; preds = %16, %12
  %22 = load i32, ptr %2, align 4, !tbaa !15
  %23 = zext i32 %22 to i64
  %24 = getelementptr inbounds nuw [256 x i8], ptr @ff_log2_tab, i64 0, i64 %23
  %25 = load i8, ptr %24, align 1, !tbaa !139
  %26 = zext i8 %25 to i32
  %27 = load i32, ptr %3, align 4, !tbaa !15
  %28 = add nsw i32 %27, %26
  store i32 %28, ptr %3, align 4, !tbaa !15
  %29 = load i32, ptr %3, align 4, !tbaa !15
  call void @llvm.lifetime.end.p0(i64 4, ptr %3) #7
  ret i32 %29
}

; Function Attrs: nounwind uwtable
define i32 @ff_hw_base_init_gop_structure(ptr noundef %0, ptr noundef %1, i32 noundef %2, i32 noundef %3, i32 noundef %4, i32 noundef %5) #0 {
  %7 = alloca i32, align 4
  %8 = alloca ptr, align 8
  %9 = alloca ptr, align 8
  %10 = alloca i32, align 4
  %11 = alloca i32, align 4
  %12 = alloca i32, align 4
  %13 = alloca i32, align 4
  store ptr %0, ptr %8, align 8, !tbaa !4
  store ptr %1, ptr %9, align 8, !tbaa !9
  store i32 %2, ptr %10, align 4, !tbaa !15
  store i32 %3, ptr %11, align 4, !tbaa !15
  store i32 %4, ptr %12, align 4, !tbaa !15
  store i32 %5, ptr %13, align 4, !tbaa !15
  %14 = load i32, ptr %10, align 4, !tbaa !15
  %15 = icmp ugt i32 %14, 2
  br i1 %15, label %16, label %17

16:                                               ; preds = %6
  br label %19

17:                                               ; preds = %6
  %18 = load i32, ptr %10, align 4, !tbaa !15
  br label %19

19:                                               ; preds = %17, %16
  %20 = phi i32 [ 2, %16 ], [ %18, %17 ]
  %21 = load ptr, ptr %8, align 8, !tbaa !4
  %22 = getelementptr inbounds nuw %struct.FFHWBaseEncodeContext, ptr %21, i32 0, i32 38
  store i32 %20, ptr %22, align 4, !tbaa !130
  %23 = load i32, ptr %11, align 4, !tbaa !15
  %24 = icmp ugt i32 %23, 2
  br i1 %24, label %25, label %26

25:                                               ; preds = %19
  br label %28

26:                                               ; preds = %19
  %27 = load i32, ptr %11, align 4, !tbaa !15
  br label %28

28:                                               ; preds = %26, %25
  %29 = phi i32 [ 2, %25 ], [ %27, %26 ]
  %30 = load ptr, ptr %8, align 8, !tbaa !4
  %31 = getelementptr inbounds nuw %struct.FFHWBaseEncodeContext, ptr %30, i32 0, i32 39
  store i32 %29, ptr %31, align 8, !tbaa !131
  %32 = load i32, ptr %12, align 4, !tbaa !15
  %33 = and i32 %32, 4
  %34 = icmp ne i32 %33, 0
  br i1 %34, label %40, label %35

35:                                               ; preds = %28
  %36 = load ptr, ptr %9, align 8, !tbaa !9
  %37 = getelementptr inbounds nuw %struct.AVCodecContext, ptr %36, i32 0, i32 66
  %38 = load i32, ptr %37, align 4, !tbaa !132
  %39 = icmp sle i32 %38, 1
  br i1 %39, label %40, label %44

40:                                               ; preds = %35, %28
  %41 = load ptr, ptr %9, align 8, !tbaa !9
  call void (ptr, i32, ptr, ...) @av_log(ptr noundef %41, i32 noundef 40, ptr noundef @.str.7)
  %42 = load ptr, ptr %8, align 8, !tbaa !4
  %43 = getelementptr inbounds nuw %struct.FFHWBaseEncodeContext, ptr %42, i32 0, i32 27
  store i32 1, ptr %43, align 8, !tbaa !119
  br label %146

44:                                               ; preds = %35
  %45 = load i32, ptr %10, align 4, !tbaa !15
  %46 = icmp ult i32 %45, 1
  br i1 %46, label %47, label %49

47:                                               ; preds = %44
  %48 = load ptr, ptr %9, align 8, !tbaa !9
  call void (ptr, i32, ptr, ...) @av_log(ptr noundef %48, i32 noundef 16, ptr noundef @.str.8)
  store i32 -22, ptr %7, align 4
  br label %173

49:                                               ; preds = %44
  %50 = load i32, ptr %12, align 4, !tbaa !15
  %51 = and i32 %50, 8
  %52 = icmp ne i32 %51, 0
  br i1 %52, label %53, label %64

53:                                               ; preds = %49
  %54 = load i32, ptr %11, align 4, !tbaa !15
  %55 = icmp ult i32 %54, 1
  br i1 %55, label %64, label %56

56:                                               ; preds = %53
  %57 = load ptr, ptr %9, align 8, !tbaa !9
  %58 = getelementptr inbounds nuw %struct.AVCodecContext, ptr %57, i32 0, i32 36
  %59 = load i32, ptr %58, align 8, !tbaa !133
  %60 = icmp slt i32 %59, 1
  br i1 %60, label %64, label %61

61:                                               ; preds = %56
  %62 = load i32, ptr %13, align 4, !tbaa !15
  %63 = icmp ne i32 %62, 0
  br i1 %63, label %64, label %87

64:                                               ; preds = %61, %56, %53, %49
  %65 = load ptr, ptr %8, align 8, !tbaa !4
  %66 = getelementptr inbounds nuw %struct.FFHWBaseEncodeContext, ptr %65, i32 0, i32 37
  %67 = load i32, ptr %66, align 8, !tbaa !134
  %68 = icmp ne i32 %67, 0
  br i1 %68, label %69, label %73

69:                                               ; preds = %64
  %70 = load ptr, ptr %9, align 8, !tbaa !9
  %71 = load i32, ptr %10, align 4, !tbaa !15
  %72 = load i32, ptr %11, align 4, !tbaa !15
  call void (ptr, i32, ptr, ...) @av_log(ptr noundef %70, i32 noundef 40, ptr noundef @.str.9, i32 noundef %71, i32 noundef %72)
  br label %77

73:                                               ; preds = %64
  %74 = load ptr, ptr %9, align 8, !tbaa !9
  %75 = load i32, ptr %10, align 4, !tbaa !15
  %76 = load i32, ptr %11, align 4, !tbaa !15
  call void (ptr, i32, ptr, ...) @av_log(ptr noundef %74, i32 noundef 40, ptr noundef @.str.10, i32 noundef %75, i32 noundef %76)
  br label %77

77:                                               ; preds = %73, %69
  %78 = load ptr, ptr %9, align 8, !tbaa !9
  %79 = getelementptr inbounds nuw %struct.AVCodecContext, ptr %78, i32 0, i32 66
  %80 = load i32, ptr %79, align 4, !tbaa !132
  %81 = load ptr, ptr %8, align 8, !tbaa !4
  %82 = getelementptr inbounds nuw %struct.FFHWBaseEncodeContext, ptr %81, i32 0, i32 27
  store i32 %80, ptr %82, align 8, !tbaa !119
  %83 = load ptr, ptr %8, align 8, !tbaa !4
  %84 = getelementptr inbounds nuw %struct.FFHWBaseEncodeContext, ptr %83, i32 0, i32 30
  store i32 2147483647, ptr %84, align 4, !tbaa !135
  %85 = load ptr, ptr %8, align 8, !tbaa !4
  %86 = getelementptr inbounds nuw %struct.FFHWBaseEncodeContext, ptr %85, i32 0, i32 32
  store i32 0, ptr %86, align 4, !tbaa !117
  br label %144

87:                                               ; preds = %61
  %88 = load ptr, ptr %8, align 8, !tbaa !4
  %89 = getelementptr inbounds nuw %struct.FFHWBaseEncodeContext, ptr %88, i32 0, i32 37
  %90 = load i32, ptr %89, align 8, !tbaa !134
  %91 = icmp ne i32 %90, 0
  br i1 %91, label %92, label %96

92:                                               ; preds = %87
  %93 = load ptr, ptr %9, align 8, !tbaa !9
  %94 = load i32, ptr %10, align 4, !tbaa !15
  %95 = load i32, ptr %11, align 4, !tbaa !15
  call void (ptr, i32, ptr, ...) @av_log(ptr noundef %93, i32 noundef 40, ptr noundef @.str.9, i32 noundef %94, i32 noundef %95)
  br label %100

96:                                               ; preds = %87
  %97 = load ptr, ptr %9, align 8, !tbaa !9
  %98 = load i32, ptr %10, align 4, !tbaa !15
  %99 = load i32, ptr %11, align 4, !tbaa !15
  call void (ptr, i32, ptr, ...) @av_log(ptr noundef %97, i32 noundef 40, ptr noundef @.str.11, i32 noundef %98, i32 noundef %99)
  br label %100

100:                                              ; preds = %96, %92
  %101 = load ptr, ptr %9, align 8, !tbaa !9
  %102 = getelementptr inbounds nuw %struct.AVCodecContext, ptr %101, i32 0, i32 66
  %103 = load i32, ptr %102, align 4, !tbaa !132
  %104 = load ptr, ptr %8, align 8, !tbaa !4
  %105 = getelementptr inbounds nuw %struct.FFHWBaseEncodeContext, ptr %104, i32 0, i32 27
  store i32 %103, ptr %105, align 8, !tbaa !119
  %106 = load ptr, ptr %8, align 8, !tbaa !4
  %107 = getelementptr inbounds nuw %struct.FFHWBaseEncodeContext, ptr %106, i32 0, i32 30
  store i32 2147483647, ptr %107, align 4, !tbaa !135
  %108 = load ptr, ptr %9, align 8, !tbaa !9
  %109 = getelementptr inbounds nuw %struct.AVCodecContext, ptr %108, i32 0, i32 36
  %110 = load i32, ptr %109, align 8, !tbaa !133
  %111 = load ptr, ptr %8, align 8, !tbaa !4
  %112 = getelementptr inbounds nuw %struct.FFHWBaseEncodeContext, ptr %111, i32 0, i32 32
  store i32 %110, ptr %112, align 4, !tbaa !117
  %113 = load i32, ptr %12, align 4, !tbaa !15
  %114 = and i32 %113, 16
  %115 = icmp ne i32 %114, 0
  br i1 %115, label %116, label %140

116:                                              ; preds = %100
  %117 = load ptr, ptr %8, align 8, !tbaa !4
  %118 = getelementptr inbounds nuw %struct.FFHWBaseEncodeContext, ptr %117, i32 0, i32 4
  %119 = load i32, ptr %118, align 4, !tbaa !136
  %120 = load ptr, ptr %8, align 8, !tbaa !4
  %121 = getelementptr inbounds nuw %struct.FFHWBaseEncodeContext, ptr %120, i32 0, i32 32
  %122 = load i32, ptr %121, align 4, !tbaa !117
  %123 = call i32 @ff_log2_c(i32 noundef %122) #9
  %124 = add nsw i32 %123, 1
  %125 = icmp sgt i32 %119, %124
  br i1 %125, label %126, label %132

126:                                              ; preds = %116
  %127 = load ptr, ptr %8, align 8, !tbaa !4
  %128 = getelementptr inbounds nuw %struct.FFHWBaseEncodeContext, ptr %127, i32 0, i32 32
  %129 = load i32, ptr %128, align 4, !tbaa !117
  %130 = call i32 @ff_log2_c(i32 noundef %129) #9
  %131 = add nsw i32 %130, 1
  br label %136

132:                                              ; preds = %116
  %133 = load ptr, ptr %8, align 8, !tbaa !4
  %134 = getelementptr inbounds nuw %struct.FFHWBaseEncodeContext, ptr %133, i32 0, i32 4
  %135 = load i32, ptr %134, align 4, !tbaa !136
  br label %136

136:                                              ; preds = %132, %126
  %137 = phi i32 [ %131, %126 ], [ %135, %132 ]
  %138 = load ptr, ptr %8, align 8, !tbaa !4
  %139 = getelementptr inbounds nuw %struct.FFHWBaseEncodeContext, ptr %138, i32 0, i32 31
  store i32 %137, ptr %139, align 8, !tbaa !137
  br label %143

140:                                              ; preds = %100
  %141 = load ptr, ptr %8, align 8, !tbaa !4
  %142 = getelementptr inbounds nuw %struct.FFHWBaseEncodeContext, ptr %141, i32 0, i32 31
  store i32 1, ptr %142, align 8, !tbaa !137
  br label %143

143:                                              ; preds = %140, %136
  br label %144

144:                                              ; preds = %143, %77
  br label %145

145:                                              ; preds = %144
  br label %146

146:                                              ; preds = %145, %40
  %147 = load i32, ptr %12, align 4, !tbaa !15
  %148 = and i32 %147, 32
  %149 = icmp ne i32 %148, 0
  br i1 %149, label %150, label %167

150:                                              ; preds = %146
  %151 = load ptr, ptr %9, align 8, !tbaa !9
  %152 = getelementptr inbounds nuw %struct.AVCodecContext, ptr %151, i32 0, i32 10
  %153 = load i32, ptr %152, align 8, !tbaa !50
  %154 = and i32 %153, -2147483648
  %155 = icmp ne i32 %154, 0
  %156 = xor i1 %155, true
  %157 = xor i1 %156, true
  %158 = zext i1 %157 to i32
  %159 = load ptr, ptr %8, align 8, !tbaa !4
  %160 = getelementptr inbounds nuw %struct.FFHWBaseEncodeContext, ptr %159, i32 0, i32 28
  store i32 %158, ptr %160, align 4, !tbaa !114
  %161 = load ptr, ptr %8, align 8, !tbaa !4
  %162 = getelementptr inbounds nuw %struct.FFHWBaseEncodeContext, ptr %161, i32 0, i32 3
  %163 = load i32, ptr %162, align 8, !tbaa !138
  %164 = add nsw i32 %163, 1
  %165 = load ptr, ptr %8, align 8, !tbaa !4
  %166 = getelementptr inbounds nuw %struct.FFHWBaseEncodeContext, ptr %165, i32 0, i32 29
  store i32 %164, ptr %166, align 8, !tbaa !116
  br label %172

167:                                              ; preds = %146
  %168 = load ptr, ptr %8, align 8, !tbaa !4
  %169 = getelementptr inbounds nuw %struct.FFHWBaseEncodeContext, ptr %168, i32 0, i32 28
  store i32 1, ptr %169, align 4, !tbaa !114
  %170 = load ptr, ptr %8, align 8, !tbaa !4
  %171 = getelementptr inbounds nuw %struct.FFHWBaseEncodeContext, ptr %170, i32 0, i32 29
  store i32 1, ptr %171, align 8, !tbaa !116
  br label %172

172:                                              ; preds = %167, %150
  store i32 0, ptr %7, align 4
  br label %173

173:                                              ; preds = %172, %47
  %174 = load i32, ptr %7, align 4
  ret i32 %174
}