; Function Attrs: nounwind uwtable
define range(i32 -22, 1) i32 @ff_hw_base_init_gop_structure(ptr noundef captures(none) initializes((1132, 1140)) %0, ptr noundef %1, i32 noundef %2, i32 noundef %3, i32 noundef %4, i32 noundef %5) local_unnamed_addr #1 {
  %7 = tail call i32 @llvm.umin.i32(i32 %2, i32 2)
  %8 = getelementptr inbounds nuw i8, ptr %0, i64 1132
  store i32 %7, ptr %8, align 4, !tbaa !132
  %9 = tail call i32 @llvm.umin.i32(i32 %3, i32 2)
  %10 = getelementptr inbounds nuw i8, ptr %0, i64 1136
  store i32 %9, ptr %10, align 8, !tbaa !133
  %11 = and i32 %4, 4
  %.not = icmp eq i32 %11, 0
  br i1 %.not, label %12, label %16

12:                                               ; preds = %6
  %13 = getelementptr inbounds nuw i8, ptr %1, i64 332
  %14 = load i32, ptr %13, align 4, !tbaa !134
  %15 = icmp slt i32 %14, 2
  br i1 %15, label %16, label %18

16:                                               ; preds = %12, %6
  tail call void (ptr, i32, ptr, ...) @av_log(ptr noundef %1, i32 noundef 40, ptr noundef nonnull @.str.7) #8
  %17 = getelementptr inbounds nuw i8, ptr %0, i64 1088
  store i32 1, ptr %17, align 8, !tbaa !123
  br label %61

18:                                               ; preds = %12
  %19 = icmp eq i32 %2, 0
  br i1 %19, label %20, label %21

20:                                               ; preds = %18
  tail call void (ptr, i32, ptr, ...) @av_log(ptr noundef nonnull %1, i32 noundef 16, ptr noundef nonnull @.str.8) #8
  br label %74

21:                                               ; preds = %18
  %22 = and i32 %4, 8
  %23 = icmp eq i32 %22, 0
  %24 = icmp eq i32 %3, 0
  %or.cond = or i1 %24, %23
  br i1 %or.cond, label %30, label %25

25:                                               ; preds = %21
  %26 = getelementptr inbounds nuw i8, ptr %1, i64 200
  %27 = load i32, ptr %26, align 8, !tbaa !135
  %28 = icmp slt i32 %27, 1
  %29 = icmp ne i32 %5, 0
  %or.cond3 = or i1 %29, %28
  br i1 %or.cond3, label %30, label %37

30:                                               ; preds = %25, %21
  %31 = getelementptr inbounds nuw i8, ptr %0, i64 1128
  %32 = load i32, ptr %31, align 8, !tbaa !136
  %.not62 = icmp eq i32 %32, 0
  %.str.10..str.9 = select i1 %.not62, ptr @.str.10, ptr @.str.9
  tail call void (ptr, i32, ptr, ...) @av_log(ptr noundef nonnull %1, i32 noundef 40, ptr noundef nonnull %.str.10..str.9, i32 noundef %2, i32 noundef %3) #8
  %33 = load i32, ptr %13, align 4, !tbaa !134
  %34 = getelementptr inbounds nuw i8, ptr %0, i64 1088
  store i32 %33, ptr %34, align 8, !tbaa !123
  %35 = getelementptr inbounds nuw i8, ptr %0, i64 1100
  store i32 2147483647, ptr %35, align 4, !tbaa !137
  %36 = getelementptr inbounds nuw i8, ptr %0, i64 1108
  store i32 0, ptr %36, align 4, !tbaa !121
  br label %61

37:                                               ; preds = %25
  %38 = getelementptr inbounds nuw i8, ptr %0, i64 1128
  %39 = load i32, ptr %38, align 8, !tbaa !136
  %.not60 = icmp eq i32 %39, 0
  %.str.11..str.9 = select i1 %.not60, ptr @.str.11, ptr @.str.9
  tail call void (ptr, i32, ptr, ...) @av_log(ptr noundef nonnull %1, i32 noundef 40, ptr noundef nonnull %.str.11..str.9, i32 noundef %2, i32 noundef %3) #8
  %40 = load i32, ptr %13, align 4, !tbaa !134
  %41 = getelementptr inbounds nuw i8, ptr %0, i64 1088
  store i32 %40, ptr %41, align 8, !tbaa !123
  %42 = getelementptr inbounds nuw i8, ptr %0, i64 1100
  store i32 2147483647, ptr %42, align 4, !tbaa !137
  %43 = load i32, ptr %26, align 8, !tbaa !135
  %44 = getelementptr inbounds nuw i8, ptr %0, i64 1108
  store i32 %43, ptr %44, align 4, !tbaa !121
  %45 = and i32 %4, 16
  %.not61 = icmp eq i32 %45, 0
  br i1 %.not61, label %59, label %46

46:                                               ; preds = %37
  %47 = getelementptr inbounds nuw i8, ptr %0, i64 28
  %48 = load i32, ptr %47, align 4, !tbaa !138
  %.not.i = icmp ult i32 %43, 65536
  %49 = lshr i32 %43, 16
  %spec.select.i = select i1 %.not.i, i32 %43, i32 %49
  %spec.select12.i = select i1 %.not.i, i32 0, i32 16
  %.not11.i = icmp samesign ult i32 %spec.select.i, 256
  %50 = lshr i32 %spec.select.i, 8
  %51 = or disjoint i32 %spec.select12.i, 8
  %.110.i = select i1 %.not11.i, i32 %spec.select.i, i32 %50
  %.1.i = select i1 %.not11.i, i32 %spec.select12.i, i32 %51
  %52 = zext nneg i32 %.110.i to i64
  %53 = getelementptr inbounds nuw [256 x i8], ptr @ff_log2_tab, i64 0, i64 %52
  %54 = load i8, ptr %53, align 1, !tbaa !139
  %55 = zext i8 %54 to i32
  %56 = or disjoint i32 %.1.i, 1
  %57 = add nuw nsw i32 %56, %55
  %. = tail call i32 @llvm.smin.i32(i32 %48, i32 %57)
  %58 = getelementptr inbounds nuw i8, ptr %0, i64 1104
  store i32 %., ptr %58, align 8, !tbaa !140
  br label %61

59:                                               ; preds = %37
  %60 = getelementptr inbounds nuw i8, ptr %0, i64 1104
  store i32 1, ptr %60, align 8, !tbaa !140
  br label %61

61:                                               ; preds = %46, %59, %30, %16
  %62 = and i32 %4, 32
  %.not63 = icmp eq i32 %62, 0
  br i1 %.not63, label %71, label %63

63:                                               ; preds = %61
  %64 = getelementptr inbounds nuw i8, ptr %1, i64 64
  %65 = load i32, ptr %64, align 8, !tbaa !42
  %.lobit = lshr i32 %65, 31
  %66 = getelementptr inbounds nuw i8, ptr %0, i64 1092
  store i32 %.lobit, ptr %66, align 4, !tbaa !118
  %67 = getelementptr inbounds nuw i8, ptr %0, i64 24
  %68 = load i32, ptr %67, align 8, !tbaa !141
  %69 = add nsw i32 %68, 1
  %70 = getelementptr inbounds nuw i8, ptr %0, i64 1096
  store i32 %69, ptr %70, align 8, !tbaa !120
  br label %74

71:                                               ; preds = %61
  %72 = getelementptr inbounds nuw i8, ptr %0, i64 1092
  store i32 1, ptr %72, align 4, !tbaa !118
  %73 = getelementptr inbounds nuw i8, ptr %0, i64 1096
  store i32 1, ptr %73, align 8, !tbaa !120
  br label %74

74:                                               ; preds = %63, %71, %20
  %.0 = phi i32 [ -22, %20 ], [ 0, %71 ], [ 0, %63 ]
  ret i32 %.0
}